; Function Attrs: mustprogress nofree norecurse nosync nounwind willreturn memory(read, inaccessiblemem: none) uwtable
define dso_local noundef zeroext i1 @_ZNK4Luau14NormalizedType9hasErrorsEv(ptr noundef nonnull readonly align 8 captures(none) dereferenceable(401) %0) local_unnamed_addr #9 align 2 {
  %2 = getelementptr inbounds nuw i8, ptr %0, i64 96
  %3 = load ptr, ptr %2, align 8, !tbaa !122
  %.not.i.i = icmp eq ptr %3, null
  br i1 %.not.i.i, label %_ZN4Luau3getINS_9NeverTypeEEEPKT_PKNS_4TypeE.exit, label %4

4:                                                ; preds = %1
  %5 = load i32, ptr %3, align 8, !tbaa !52
  %6 = icmp ne i32 %5, 17
  br label %_ZN4Luau3getINS_9NeverTypeEEEPKT_PKNS_4TypeE.exit

_ZN4Luau3getINS_9NeverTypeEEEPKT_PKNS_4TypeE.exit: ; preds = %1, %4
  %.not = phi i1 [ %6, %4 ], [ true, %1 ]
  ret i1 %.not
}